target datalayout = "e-m:e-p270:32:32-p271:32:32-p272:64:64-i64:64-i128:128-f80:128-n8:16:32:64-S128"
target triple = "x86_64-pc-linux-gnu"

%struct.CDSConst = type { ptr, i64 }

@_ZN12CDSConstants7offsetsE = hidden global [12 x %struct.CDSConst] zeroinitializer, align 16

; Function Attrs: mustprogress nounwind uwtable
define hidden noundef i64 @_ZN12CDSConstants14get_cds_offsetEPKc(ptr noundef %0) #1 align 2 {
  %2 = alloca i64, align 8
  %3 = alloca ptr, align 8
  %4 = alloca i32, align 4
  store ptr %0, ptr %3, align 8
  store i32 0, ptr %4, align 4
  br label %5

5:                                                ; preds = %24, %1
  %6 = load i32, ptr %4, align 4
  %7 = icmp slt i32 %6, 12
  br i1 %7, label %8, label %27

8:                                                ; preds = %5
  %9 = load ptr, ptr %3, align 8
  %10 = load i32, ptr %4, align 4
  %11 = sext i32 %10 to i64
  %12 = getelementptr inbounds [12 x %struct.CDSConst], ptr @_ZN12CDSConstants7offsetsE, i64 0, i64 %11
  %13 = getelementptr inbounds %struct.CDSConst, ptr %12, i32 0, i32 0
  %14 = load ptr, ptr %13, align 16
  %15 = call i32 @strcmp(ptr noundef %9, ptr noundef %14) #3
  %16 = icmp eq i32 %15, 0
  br i1 %16, label %17, label %23

17:                                               ; preds = %8
  %18 = load i32, ptr %4, align 4
  %19 = sext i32 %18 to i64
  %20 = getelementptr inbounds [12 x %struct.CDSConst], ptr @_ZN12CDSConstants7offsetsE, i64 0, i64 %19
  %21 = getelementptr inbounds %struct.CDSConst, ptr %20, i32 0, i32 1
  %22 = load i64, ptr %21, align 8
  store i64 %22, ptr %2, align 8
  br label %28

23:                                               ; preds = %8
  br label %24

24:                                               ; preds = %23
  %25 = load i32, ptr %4, align 4
  %26 = add nsw i32 %25, 1
  store i32 %26, ptr %4, align 4
  br label %5, !llvm.loop !6

27:                                               ; preds = %5
  store i64 -1, ptr %2, align 8
  br label %28

28:                                               ; preds = %27, %17
  %29 = load i64, ptr %2, align 8
  ret i64 %29
}