; Function Attrs: mustprogress nofree nounwind willreturn memory(read, inaccessiblemem: none) uwtable
define hidden noundef i64 @_ZN12CDSConstants14get_cds_offsetEPKc(ptr nocapture noundef readonly %0) local_unnamed_addr #0 align 2 {
  br label %3

2:                                                ; preds = %3
  %indvars.iv.next = add nuw nsw i64 %indvars.iv, 1
  %exitcond.not = icmp eq i64 %indvars.iv.next, 12
  br i1 %exitcond.not, label %.loopexit, label %3, !llvm.loop !6

3:                                                ; preds = %1, %2
  %indvars.iv = phi i64 [ 0, %1 ], [ %indvars.iv.next, %2 ]
  %4 = getelementptr inbounds [12 x %struct.CDSConst], ptr @_ZN12CDSConstants7offsetsE, i64 0, i64 %indvars.iv
  %5 = load ptr, ptr %4, align 16
  %6 = tail call i32 @strcmp(ptr noundef nonnull dereferenceable(1) %0, ptr noundef nonnull dereferenceable(1) %5) #2
  %7 = icmp eq i32 %6, 0
  br i1 %7, label %8, label %2

8:                                                ; preds = %3
  %9 = getelementptr inbounds i8, ptr %4, i64 8
  %10 = load i64, ptr %9, align 8
  br label %.loopexit

.loopexit:                                        ; preds = %2, %8
  %.05 = phi i64 [ %10, %8 ], [ -1, %2 ]
  ret i64 %.05
}